target datalayout = "e-m:e-p270:32:32-p271:32:32-p272:64:64-i64:64-i128:128-f80:128-n8:16:32:64-S128"
target triple = "x86_64-pc-linux-gnu"

; Function Attrs: mustprogress nounwind uwtable
define noundef ptr @_ZN11OpenImageIO6v3_1_014aligned_mallocEmm(i64 noundef %0, i64 noundef %1) #10 {
  %3 = alloca i64, align 8
  %4 = alloca i64, align 8
  %5 = alloca ptr, align 8
  store i64 %0, ptr %3, align 8, !tbaa !10
  store i64 %1, ptr %4, align 8, !tbaa !10
  call void @llvm.lifetime.start.p0(i64 8, ptr %5) #3
  %6 = load i64, ptr %4, align 8, !tbaa !10
  %7 = load i64, ptr %3, align 8, !tbaa !10
  %8 = call i32 @posix_memalign(ptr noundef %5, i64 noundef %6, i64 noundef %7) #3
  %9 = icmp eq i32 %8, 0
  br i1 %9, label %10, label %12

10:                                               ; preds = %2
  %11 = load ptr, ptr %5, align 8, !tbaa !64
  br label %13

12:                                               ; preds = %2
  br label %13

13:                                               ; preds = %12, %10
  %14 = phi ptr [ %11, %10 ], [ null, %12 ]
  call void @llvm.lifetime.end.p0(i64 8, ptr %5) #3
  ret ptr %14
}