; Function Attrs: mustprogress nofree nounwind uwtable
define noundef ptr @_ZN11OpenImageIO6v3_1_014aligned_mallocEmm(i64 noundef %0, i64 noundef %1) local_unnamed_addr #9 {
  %3 = alloca ptr, align 8
  call void @llvm.lifetime.start.p0(i64 8, ptr nonnull %3) #32
  %4 = call i32 @posix_memalign(ptr noundef nonnull %3, i64 noundef %1, i64 noundef %0) #32
  %5 = icmp eq i32 %4, 0
  %6 = load ptr, ptr %3, align 8
  %7 = select i1 %5, ptr %6, ptr null
  call void @llvm.lifetime.end.p0(i64 8, ptr nonnull %3) #32
  ret ptr %7
}